target datalayout = "e-m:e-p270:32:32-p271:32:32-p272:64:64-i64:64-i128:128-f80:128-n8:16:32:64-S128"
target triple = "x86_64-pc-linux-gnu"

%struct.client = type { i64, i64, ptr, i8, i8, i8, i8, i32, ptr, ptr, ptr, ptr, ptr, i64, i64, i32, ptr, i32, i32, ptr, i64, ptr, ptr, ptr, ptr, ptr, i32, i32, i64, ptr, i64, ptr, i64, i64, i64, i32, ptr, i64, i64, i32, i32, i32, i32, i64, i64, ptr, i64, i64, i64, i64, i64, i64, i64, i64, [41 x i8], i32, ptr, i32, i32, i64, %struct.multiState, %struct.blockingState, i64, ptr, ptr, ptr, ptr, ptr, ptr, ptr, ptr, ptr, ptr, ptr, ptr, ptr, ptr, i64, ptr, i64, i32, ptr, ptr, ptr, i64, %struct.listNode, i64, i64, i32, i64, ptr }
%struct.multiState = type { ptr, i32, i32, i32, i64, i32 }
%struct.blockingState = type { i32, i64, i32, ptr, i32, i32, i64, ptr, ptr, i64 }
%struct.listNode = type { ptr, ptr, ptr }
%struct.list = type { ptr, ptr, ptr, ptr, ptr, i64 }

; Function Attrs: nounwind uwtable
define dso_local i64 @multiStateMemOverhead(ptr noundef %0) #0 {
  %2 = alloca ptr, align 8
  %3 = alloca i64, align 8
  store ptr %0, ptr %2, align 8, !tbaa !5
  call void @llvm.lifetime.start.p0(i64 8, ptr %3) #8
  %4 = load ptr, ptr %2, align 8, !tbaa !5
  %5 = getelementptr inbounds nuw %struct.client, ptr %4, i32 0, i32 60
  %6 = getelementptr inbounds nuw %struct.multiState, ptr %5, i32 0, i32 4
  %7 = load i64, ptr %6, align 8, !tbaa !33
  store i64 %7, ptr %3, align 8, !tbaa !44
  %8 = load ptr, ptr %2, align 8, !tbaa !5
  %9 = getelementptr inbounds nuw %struct.client, ptr %8, i32 0, i32 63
  %10 = load ptr, ptr %9, align 8, !tbaa !53
  %11 = getelementptr inbounds nuw %struct.list, ptr %10, i32 0, i32 5
  %12 = load i64, ptr %11, align 8, !tbaa !54
  %13 = mul i64 %12, 80
  %14 = load i64, ptr %3, align 8, !tbaa !44
  %15 = add i64 %14, %13
  store i64 %15, ptr %3, align 8, !tbaa !44
  %16 = load ptr, ptr %2, align 8, !tbaa !5
  %17 = getelementptr inbounds nuw %struct.client, ptr %16, i32 0, i32 60
  %18 = getelementptr inbounds nuw %struct.multiState, ptr %17, i32 0, i32 5
  %19 = load i32, ptr %18, align 8, !tbaa !34
  %20 = sext i32 %19 to i64
  %21 = mul i64 %20, 24
  %22 = load i64, ptr %3, align 8, !tbaa !44
  %23 = add i64 %22, %21
  store i64 %23, ptr %3, align 8, !tbaa !44
  %24 = load i64, ptr %3, align 8, !tbaa !44
  call void @llvm.lifetime.end.p0(i64 8, ptr %3) #8
  ret i64 %24
}