; Function Attrs: mustprogress nofree norecurse nosync nounwind willreturn memory(read, inaccessiblemem: none) uwtable
define dso_local i64 @multiStateMemOverhead(ptr noundef readonly captures(none) %0) local_unnamed_addr #8 {
  %2 = getelementptr inbounds nuw i8, ptr %0, i64 464
  %3 = load i64, ptr %2, align 8, !tbaa !5
  %4 = getelementptr inbounds nuw i8, ptr %0, i64 560
  %5 = load ptr, ptr %4, align 8, !tbaa !48
  %6 = getelementptr inbounds nuw i8, ptr %5, i64 40
  %7 = load i64, ptr %6, align 8, !tbaa !49
  %8 = mul i64 %7, 80
  %9 = add i64 %8, %3
  %10 = getelementptr inbounds nuw i8, ptr %0, i64 472
  %11 = load i32, ptr %10, align 8, !tbaa !28
  %12 = sext i32 %11 to i64
  %13 = mul nsw i64 %12, 24
  %14 = add i64 %9, %13
  ret i64 %14
}